; Function Attrs: mustprogress uwtable
define void @_ZN3nix16RemoteFSAccessor13makeCacheFileESt17basic_string_viewIcSt11char_traitsIcEERKNSt7__cxx1112basic_stringIcS3_SaIcEEE(ptr dead_on_unwind noalias writable sret(%"class.std::__cxx11::basic_string") align 8 %0, ptr noundef nonnull align 8 dereferenceable(184) %1, i64 %2, ptr %3, ptr noundef nonnull align 8 dereferenceable(32) %4) local_unnamed_addr #4 align 2 personality ptr @__gxx_personality_v0 {
  %6 = alloca %"class.boost::basic_format", align 8
  %7 = alloca %"class.std::basic_string_view", align 8
  %8 = alloca %"class.std::__cxx11::basic_string", align 8
  %9 = alloca %"class.std::allocator", align 1
  store i64 %2, ptr %7, align 8
  %10 = getelementptr inbounds i8, ptr %7, i64 8
  store ptr %3, ptr %10, align 8
  call void @_ZNSaIcEC1Ev(ptr noundef nonnull align 1 dereferenceable(1) %9) #26
  invoke void @_ZNSt7__cxx1112basic_stringIcSt11char_traitsIcESaIcEEC2IS3_EEPKcRKS3_(ptr noundef nonnull align 8 dereferenceable(32) %8, ptr noundef nonnull @.str.4, ptr noundef nonnull align 1 dereferenceable(1) %9)
          to label %11 unwind label %24

11:                                               ; preds = %5
  call void @llvm.lifetime.start.p0(i64 224, ptr nonnull %6)
  invoke void @_ZN5boost12basic_formatIcSt11char_traitsIcESaIcEEC2ERKNSt7__cxx1112basic_stringIcS2_S3_EE(ptr noundef nonnull align 8 dereferenceable(224) %6, ptr noundef nonnull align 8 dereferenceable(32) %8)
          to label %.noexc unwind label %26

.noexc:                                           ; preds = %11
  %12 = getelementptr inbounds i8, ptr %1, i64 152
  %13 = getelementptr inbounds i8, ptr %6, i64 112
  store i8 -7, ptr %13, align 8, !noalias !6
  invoke void @_ZN3nix12formatHelperIN5boost12basic_formatIcSt11char_traitsIcESaIcEEENSt7__cxx1112basic_stringIcS4_S5_EEJSt17basic_string_viewIcS4_ES9_EEEvRT_RKT0_DpRKT1_(ptr noundef nonnull align 8 dereferenceable(224) %6, ptr noundef nonnull align 8 dereferenceable(32) %12, ptr noundef nonnull align 8 dereferenceable(16) %7, ptr noundef nonnull align 8 dereferenceable(32) %4)
          to label %14 unwind label %15, !noalias !6

14:                                               ; preds = %.noexc
  invoke void @_ZNK5boost12basic_formatIcSt11char_traitsIcESaIcEE3strB5cxx11Ev(ptr dead_on_unwind writable sret(%"class.std::__cxx11::basic_string") align 8 %0, ptr noundef nonnull align 8 dereferenceable(224) %6)
          to label %17 unwind label %15

15:                                               ; preds = %14, %.noexc
  %16 = landingpad { ptr, i32 }
          cleanup
  call void @_ZN5boost12basic_formatIcSt11char_traitsIcESaIcEED2Ev(ptr noundef nonnull align 8 dereferenceable(224) %6) #26
  br label %.body

17:                                               ; preds = %14
  call void @_ZN5boost12basic_formatIcSt11char_traitsIcESaIcEED2Ev(ptr noundef nonnull align 8 dereferenceable(224) %6) #26
  call void @llvm.lifetime.end.p0(i64 224, ptr nonnull %6)
  %18 = load ptr, ptr %8, align 8
  %19 = getelementptr inbounds i8, ptr %8, i64 16
  %20 = icmp eq ptr %18, %19
  br i1 %20, label %_ZNKSt7__cxx1112basic_stringIcSt11char_traitsIcESaIcEE11_M_is_localEv.exit.thread.i.i, label %_ZNKSt7__cxx1112basic_stringIcSt11char_traitsIcESaIcEE11_M_is_localEv.exit.i.i

_ZNKSt7__cxx1112basic_stringIcSt11char_traitsIcESaIcEE11_M_is_localEv.exit.thread.i.i: ; preds = %17
  %21 = getelementptr inbounds i8, ptr %8, i64 8
  %22 = load i64, ptr %21, align 8
  %23 = icmp ult i64 %22, 16
  call void @llvm.assume(i1 %23)
  br label %_ZNSt7__cxx1112basic_stringIcSt11char_traitsIcESaIcEED2Ev.exit

_ZNKSt7__cxx1112basic_stringIcSt11char_traitsIcESaIcEE11_M_is_localEv.exit.i.i: ; preds = %17
  call void @_ZdlPv(ptr noundef %18) #27
  br label %_ZNSt7__cxx1112basic_stringIcSt11char_traitsIcESaIcEED2Ev.exit

_ZNSt7__cxx1112basic_stringIcSt11char_traitsIcESaIcEED2Ev.exit: ; preds = %_ZNKSt7__cxx1112basic_stringIcSt11char_traitsIcESaIcEE11_M_is_localEv.exit.thread.i.i, %_ZNKSt7__cxx1112basic_stringIcSt11char_traitsIcESaIcEE11_M_is_localEv.exit.i.i
  call void @_ZNSaIcED2Ev(ptr noundef nonnull align 1 dereferenceable(1) %8) #26
  call void @_ZNSaIcED1Ev(ptr noundef nonnull align 1 dereferenceable(1) %9) #26
  ret void

24:                                               ; preds = %5
  %25 = landingpad { ptr, i32 }
          cleanup
  br label %28

26:                                               ; preds = %11
  %27 = landingpad { ptr, i32 }
          cleanup
  br label %.body

.body:                                            ; preds = %15, %26
  %eh.lpad-body = phi { ptr, i32 } [ %27, %26 ], [ %16, %15 ]
  call void @_ZNSt7__cxx1112basic_stringIcSt11char_traitsIcESaIcEED2Ev(ptr noundef nonnull align 8 dereferenceable(32) %8) #26
  br label %28

28:                                               ; preds = %.body, %24
  %.pn = phi { ptr, i32 } [ %eh.lpad-body, %.body ], [ %25, %24 ]
  call void @_ZNSaIcED1Ev(ptr noundef nonnull align 1 dereferenceable(1) %9) #26
  resume { ptr, i32 } %.pn
}